; Function Attrs: mustprogress nofree norecurse nosync nounwind willreturn memory(read, inaccessiblemem: none) uwtable
define internal noundef float @_ZNK5faiss12_GLOBAL__N_112IVFPQScannerILNS_10MetricTypeE1ENS_4CMaxIflEENS_16PQDecoderGenericELb1EE16distance_to_codeEPKh(ptr noundef nonnull readonly align 8 captures(none) dereferenceable(264) %0, ptr noundef readonly captures(none) %1) unnamed_addr #22 align 2 {
  %3 = getelementptr inbounds nuw i8, ptr %0, i64 248
  %4 = load float, ptr %3, align 8, !tbaa !2229
  %5 = getelementptr inbounds nuw i8, ptr %0, i64 64
  %6 = load ptr, ptr %5, align 8, !tbaa !179
  %7 = getelementptr inbounds nuw i8, ptr %6, i64 24
  %8 = load i64, ptr %7, align 8, !tbaa !161
  %9 = getelementptr inbounds nuw i8, ptr %6, i64 32
  %10 = load i64, ptr %9, align 8, !tbaa !180
  %11 = trunc i64 %10 to i32
  %12 = and i64 %10, 4294967295
  %notmask.i.i.i = shl nsw i64 -1, %12
  %13 = xor i64 %notmask.i.i.i, -1
  %14 = shl nuw i32 1, %11
  %15 = sext i32 %14 to i64
  %.not.i.i = icmp eq i64 %8, 0
  br i1 %.not.i.i, label %_ZN5faiss20distance_single_codeINS_16PQDecoderGenericEEEfmmPKfPKh.exit, label %.lr.ph.i.i

.lr.ph.i.i:                                       ; preds = %2
  %16 = getelementptr inbounds nuw i8, ptr %0, i64 88
  %17 = load ptr, ptr %16, align 8, !tbaa !181
  %18 = trunc i64 %10 to i8
  br label %19

19:                                               ; preds = %_ZN5faiss16PQDecoderGeneric6decodeEv.exit.i.i, %.lr.ph.i.i
  %.022.i.i = phi i64 [ 0, %.lr.ph.i.i ], [ %60, %_ZN5faiss16PQDecoderGeneric6decodeEv.exit.i.i ]
  %.01121.i.i = phi float [ 0.000000e+00, %.lr.ph.i.i ], [ %58, %_ZN5faiss16PQDecoderGeneric6decodeEv.exit.i.i ]
  %.01220.i.i = phi ptr [ %17, %.lr.ph.i.i ], [ %59, %_ZN5faiss16PQDecoderGeneric6decodeEv.exit.i.i ]
  %.sroa.0.019.i.i = phi ptr [ %1, %.lr.ph.i.i ], [ %.sroa.0.2.i.i, %_ZN5faiss16PQDecoderGeneric6decodeEv.exit.i.i ]
  %.sroa.7.018.i.i = phi i8 [ 0, %.lr.ph.i.i ], [ %.sroa.7.1.i.i, %_ZN5faiss16PQDecoderGeneric6decodeEv.exit.i.i ]
  %.sroa.15.017.i.i = phi i8 [ 0, %.lr.ph.i.i ], [ %.sroa.15.2.i.i, %_ZN5faiss16PQDecoderGeneric6decodeEv.exit.i.i ]
  %20 = icmp eq i8 %.sroa.7.018.i.i, 0
  br i1 %20, label %21, label %._crit_edge16.i.i.i

21:                                               ; preds = %19
  %22 = load i8, ptr %.sroa.0.019.i.i, align 1, !tbaa !72
  br label %._crit_edge16.i.i.i

._crit_edge16.i.i.i:                              ; preds = %21, %19
  %.sroa.15.1.i.i = phi i8 [ %22, %21 ], [ %.sroa.15.017.i.i, %19 ]
  %23 = zext i8 %.sroa.15.1.i.i to i32
  %24 = zext i8 %.sroa.7.018.i.i to i32
  %25 = lshr i32 %23, %24
  %26 = zext nneg i32 %25 to i64
  %27 = add i32 %24, %11
  %28 = icmp sgt i32 %27, 7
  br i1 %28, label %29, label %53

29:                                               ; preds = %._crit_edge16.i.i.i
  %30 = sub nsw i32 8, %24
  %31 = sext i32 %30 to i64
  %32 = getelementptr inbounds nuw i8, ptr %.sroa.0.019.i.i, i64 1
  %33 = add nsw i32 %27, -8
  %34 = lshr i32 %33, 3
  %35 = icmp samesign ugt i32 %27, 15
  br i1 %35, label %.lr.ph.i.i.i, label %._crit_edge.i.i.i

._crit_edge.i.loopexit.i.i:                       ; preds = %.lr.ph.i.i.i
  %36 = add nsw i32 %34, -1
  %37 = zext i32 %36 to i64
  %scevgep.i.i = getelementptr i8, ptr %.sroa.0.019.i.i, i64 2
  %scevgep26.i.i = getelementptr i8, ptr %scevgep.i.i, i64 %37
  br label %._crit_edge.i.i.i

._crit_edge.i.i.i:                                ; preds = %._crit_edge.i.loopexit.i.i, %29
  %.sroa.0.1.i.i = phi ptr [ %32, %29 ], [ %scevgep26.i.i, %._crit_edge.i.loopexit.i.i ]
  %.09.lcssa.i.i.i = phi i64 [ %26, %29 ], [ %45, %._crit_edge.i.loopexit.i.i ]
  %.08.lcssa.i.i.i = phi i64 [ %31, %29 ], [ %46, %._crit_edge.i.loopexit.i.i ]
  %38 = add i8 %.sroa.7.018.i.i, %18
  %39 = and i8 %38, 7
  %.not.i.i.i = icmp eq i8 %39, 0
  br i1 %.not.i.i.i, label %_ZN5faiss16PQDecoderGeneric6decodeEv.exit.i.i, label %48

.lr.ph.i.i.i:                                     ; preds = %29, %.lr.ph.i.i.i
  %.013.i.i.i = phi i32 [ %47, %.lr.ph.i.i.i ], [ 0, %29 ]
  %.0812.i.i.i = phi i64 [ %46, %.lr.ph.i.i.i ], [ %31, %29 ]
  %.0911.i.i.i = phi i64 [ %45, %.lr.ph.i.i.i ], [ %26, %29 ]
  %40 = phi ptr [ %41, %.lr.ph.i.i.i ], [ %32, %29 ]
  %41 = getelementptr inbounds nuw i8, ptr %40, i64 1
  %42 = load i8, ptr %40, align 1, !tbaa !72
  %43 = zext i8 %42 to i64
  %44 = shl i64 %43, %.0812.i.i.i
  %45 = or i64 %44, %.0911.i.i.i
  %46 = add nsw i64 %.0812.i.i.i, 8
  %47 = add nuw nsw i32 %.013.i.i.i, 1
  %exitcond.not.i.i.i = icmp eq i32 %47, %34
  br i1 %exitcond.not.i.i.i, label %._crit_edge.i.loopexit.i.i, label %.lr.ph.i.i.i, !llvm.loop !2176

48:                                               ; preds = %._crit_edge.i.i.i
  %49 = load i8, ptr %.sroa.0.1.i.i, align 1, !tbaa !72
  %50 = zext i8 %49 to i64
  %51 = shl i64 %50, %.08.lcssa.i.i.i
  %52 = or i64 %51, %.09.lcssa.i.i.i
  br label %_ZN5faiss16PQDecoderGeneric6decodeEv.exit.i.i

53:                                               ; preds = %._crit_edge16.i.i.i
  %54 = trunc i32 %27 to i8
  br label %_ZN5faiss16PQDecoderGeneric6decodeEv.exit.i.i

_ZN5faiss16PQDecoderGeneric6decodeEv.exit.i.i:    ; preds = %53, %48, %._crit_edge.i.i.i
  %.sroa.15.2.i.i = phi i8 [ %.sroa.15.1.i.i, %._crit_edge.i.i.i ], [ %49, %48 ], [ %.sroa.15.1.i.i, %53 ]
  %.sroa.7.1.i.i = phi i8 [ 0, %._crit_edge.i.i.i ], [ %39, %48 ], [ %54, %53 ]
  %.sroa.0.2.i.i = phi ptr [ %.sroa.0.1.i.i, %._crit_edge.i.i.i ], [ %.sroa.0.1.i.i, %48 ], [ %.sroa.0.019.i.i, %53 ]
  %.2.i.i.i = phi i64 [ %.09.lcssa.i.i.i, %._crit_edge.i.i.i ], [ %52, %48 ], [ %26, %53 ]
  %55 = and i64 %.2.i.i.i, %13
  %56 = getelementptr inbounds nuw float, ptr %.01220.i.i, i64 %55
  %57 = load float, ptr %56, align 4, !tbaa !138
  %58 = fadd float %.01121.i.i, %57
  %59 = getelementptr inbounds nuw float, ptr %.01220.i.i, i64 %15
  %60 = add nuw i64 %.022.i.i, 1
  %exitcond.not.i.i = icmp eq i64 %60, %8
  br i1 %exitcond.not.i.i, label %_ZN5faiss20distance_single_codeINS_16PQDecoderGenericEEEfmmPKfPKh.exit, label %19, !llvm.loop !2177

_ZN5faiss20distance_single_codeINS_16PQDecoderGenericEEEfmmPKfPKh.exit: ; preds = %_ZN5faiss16PQDecoderGeneric6decodeEv.exit.i.i, %2
  %.011.lcssa.i.i = phi float [ 0.000000e+00, %2 ], [ %58, %_ZN5faiss16PQDecoderGeneric6decodeEv.exit.i.i ]
  %61 = fadd float %4, %.011.lcssa.i.i
  ret float %61
}